target datalayout = "e-m:e-p270:32:32-p271:32:32-p272:64:64-i64:64-i128:128-f80:128-n8:16:32:64-S128"
target triple = "x86_64-pc-linux-gnu"

%struct.Min_Cube_t_ = type { ptr, i32, [1 x i32] }

@.str = private unnamed_addr constant [2 x i8] c"-\00", align 1
@.str.1 = private unnamed_addr constant [2 x i8] c"0\00", align 1
@.str.2 = private unnamed_addr constant [2 x i8] c"1\00", align 1
@.str.3 = private unnamed_addr constant [2 x i8] c"?\00", align 1
@.str.4 = private unnamed_addr constant [4 x i8] c" 1\0A\00", align 1
@.str.8 = private unnamed_addr constant [6 x i8] c"%s.%s\00", align 1
@.str.9 = private unnamed_addr constant [5 x i8] c"esop\00", align 1
@.str.10 = private unnamed_addr constant [4 x i8] c"pla\00", align 1
@.str.11 = private unnamed_addr constant [2 x i8] c"w\00", align 1
@.str.12 = private unnamed_addr constant [49 x i8] c"# %s cover for output %s generated by ABC on %s\0A\00", align 1
@.str.13 = private unnamed_addr constant [5 x i8] c"ESOP\00", align 1
@.str.14 = private unnamed_addr constant [4 x i8] c"SOP\00", align 1
@.str.15 = private unnamed_addr constant [7 x i8] c".i %d\0A\00", align 1
@.str.16 = private unnamed_addr constant [7 x i8] c".o %d\0A\00", align 1
@.str.17 = private unnamed_addr constant [7 x i8] c".p %d\0A\00", align 1
@.str.18 = private unnamed_addr constant [12 x i8] c".type esop\0A\00", align 1
@.str.19 = private unnamed_addr constant [4 x i8] c".e\0A\00", align 1

; Function Attrs: inlinehint nounwind uwtable
define internal i32 @Min_CubeHasBit(ptr noundef %0, i32 noundef %1) #2 {
  %3 = alloca ptr, align 8
  %4 = alloca i32, align 4
  store ptr %0, ptr %3, align 8, !tbaa !8
  store i32 %1, ptr %4, align 4, !tbaa !11
  %5 = load ptr, ptr %3, align 8, !tbaa !8
  %6 = getelementptr inbounds nuw %struct.Min_Cube_t_, ptr %5, i32 0, i32 2
  %7 = load i32, ptr %4, align 4, !tbaa !11
  %8 = ashr i32 %7, 5
  %9 = sext i32 %8 to i64
  %10 = getelementptr inbounds [1 x i32], ptr %6, i64 0, i64 %9
  %11 = load i32, ptr %10, align 4, !tbaa !11
  %12 = load i32, ptr %4, align 4, !tbaa !11
  %13 = and i32 %12, 31
  %14 = shl i32 1, %13
  %15 = and i32 %11, %14
  %16 = icmp ugt i32 %15, 0
  %17 = zext i1 %16 to i32
  ret i32 %17
}

; Function Attrs: nounwind uwtable
define void @Min_CubeWrite(ptr noundef %0, ptr noundef %1) #0 {
  %3 = alloca ptr, align 8
  %4 = alloca ptr, align 8
  %5 = alloca i32, align 4
  store ptr %0, ptr %3, align 8, !tbaa !23
  store ptr %1, ptr %4, align 8, !tbaa !8
  call void @llvm.lifetime.start.p0(i64 4, ptr %5) #8
  store i32 0, ptr %5, align 4, !tbaa !11
  br label %6

6:                                                ; preds = %48, %2
  %7 = load i32, ptr %5, align 4, !tbaa !11
  %8 = load ptr, ptr %4, align 8, !tbaa !8
  %9 = getelementptr inbounds nuw %struct.Min_Cube_t_, ptr %8, i32 0, i32 1
  %10 = load i32, ptr %9, align 8
  %11 = and i32 %10, 1023
  %12 = icmp slt i32 %7, %11
  br i1 %12, label %13, label %51

13:                                               ; preds = %6
  %14 = load ptr, ptr %4, align 8, !tbaa !8
  %15 = load i32, ptr %5, align 4, !tbaa !11
  %16 = mul nsw i32 %15, 2
  %17 = call i32 @Min_CubeHasBit(ptr noundef %14, i32 noundef %16)
  %18 = icmp ne i32 %17, 0
  br i1 %18, label %19, label %33

19:                                               ; preds = %13
  %20 = load ptr, ptr %4, align 8, !tbaa !8
  %21 = load i32, ptr %5, align 4, !tbaa !11
  %22 = mul nsw i32 %21, 2
  %23 = add nsw i32 %22, 1
  %24 = call i32 @Min_CubeHasBit(ptr noundef %20, i32 noundef %23)
  %25 = icmp ne i32 %24, 0
  br i1 %25, label %26, label %29

26:                                               ; preds = %19
  %27 = load ptr, ptr %3, align 8, !tbaa !23
  %28 = call i32 (ptr, ptr, ...) @fprintf(ptr noundef %27, ptr noundef @.str) #8
  br label %32

29:                                               ; preds = %19
  %30 = load ptr, ptr %3, align 8, !tbaa !23
  %31 = call i32 (ptr, ptr, ...) @fprintf(ptr noundef %30, ptr noundef @.str.1) #8
  br label %32

32:                                               ; preds = %29, %26
  br label %47

33:                                               ; preds = %13
  %34 = load ptr, ptr %4, align 8, !tbaa !8
  %35 = load i32, ptr %5, align 4, !tbaa !11
  %36 = mul nsw i32 %35, 2
  %37 = add nsw i32 %36, 1
  %38 = call i32 @Min_CubeHasBit(ptr noundef %34, i32 noundef %37)
  %39 = icmp ne i32 %38, 0
  br i1 %39, label %40, label %43

40:                                               ; preds = %33
  %41 = load ptr, ptr %3, align 8, !tbaa !23
  %42 = call i32 (ptr, ptr, ...) @fprintf(ptr noundef %41, ptr noundef @.str.2) #8
  br label %46

43:                                               ; preds = %33
  %44 = load ptr, ptr %3, align 8, !tbaa !23
  %45 = call i32 (ptr, ptr, ...) @fprintf(ptr noundef %44, ptr noundef @.str.3) #8
  br label %46

46:                                               ; preds = %43, %40
  br label %47

47:                                               ; preds = %46, %32
  br label %48

48:                                               ; preds = %47
  %49 = load i32, ptr %5, align 4, !tbaa !11
  %50 = add nsw i32 %49, 1
  store i32 %50, ptr %5, align 4, !tbaa !11
  br label %6, !llvm.loop !25

51:                                               ; preds = %6
  %52 = load ptr, ptr %3, align 8, !tbaa !23
  %53 = call i32 (ptr, ptr, ...) @fprintf(ptr noundef %52, ptr noundef @.str.4) #8
  call void @llvm.lifetime.end.p0(i64 4, ptr %5) #8
  ret void
}

; Function Attrs: inlinehint nounwind uwtable
define internal i32 @Min_CoverCountCubes(ptr noundef %0) #2 {
  %2 = alloca ptr, align 8
  %3 = alloca ptr, align 8
  %4 = alloca i32, align 4
  store ptr %0, ptr %2, align 8, !tbaa !8
  call void @llvm.lifetime.start.p0(i64 8, ptr %3) #8
  call void @llvm.lifetime.start.p0(i64 4, ptr %4) #8
  store i32 0, ptr %4, align 4, !tbaa !11
  %5 = load ptr, ptr %2, align 8, !tbaa !8
  store ptr %5, ptr %3, align 8, !tbaa !8
  br label %6

6:                                                ; preds = %12, %1
  %7 = load ptr, ptr %3, align 8, !tbaa !8
  %8 = icmp ne ptr %7, null
  br i1 %8, label %9, label %16

9:                                                ; preds = %6
  %10 = load i32, ptr %4, align 4, !tbaa !11
  %11 = add nsw i32 %10, 1
  store i32 %11, ptr %4, align 4, !tbaa !11
  br label %12

12:                                               ; preds = %9
  %13 = load ptr, ptr %3, align 8, !tbaa !8
  %14 = getelementptr inbounds nuw %struct.Min_Cube_t_, ptr %13, i32 0, i32 0
  %15 = load ptr, ptr %14, align 8, !tbaa !20
  store ptr %15, ptr %3, align 8, !tbaa !8
  br label %6, !llvm.loop !40

16:                                               ; preds = %6
  %17 = load i32, ptr %4, align 4, !tbaa !11
  call void @llvm.lifetime.end.p0(i64 4, ptr %4) #8
  call void @llvm.lifetime.end.p0(i64 8, ptr %3) #8
  ret i32 %17
}

; Function Attrs: nounwind uwtable
define void @Min_CoverWriteFile(ptr noundef %0, ptr noundef %1, i32 noundef %2) #0 {
  %4 = alloca ptr, align 8
  %5 = alloca ptr, align 8
  %6 = alloca i32, align 4
  %7 = alloca [1000 x i8], align 16
  %8 = alloca ptr, align 8
  %9 = alloca ptr, align 8
  %10 = alloca i32, align 4
  store ptr %0, ptr %4, align 8, !tbaa !8
  store ptr %1, ptr %5, align 8, !tbaa !37
  store i32 %2, ptr %6, align 4, !tbaa !11
  call void @llvm.lifetime.start.p0(i64 1000, ptr %7) #8
  call void @llvm.lifetime.start.p0(i64 8, ptr %8) #8
  call void @llvm.lifetime.start.p0(i64 8, ptr %9) #8
  call void @llvm.lifetime.start.p0(i64 4, ptr %10) #8
  %11 = getelementptr inbounds [1000 x i8], ptr %7, i64 0, i64 0
  %12 = load ptr, ptr %5, align 8, !tbaa !37
  %13 = load i32, ptr %6, align 4, !tbaa !11
  %14 = icmp ne i32 %13, 0
  %15 = select i1 %14, ptr @.str.9, ptr @.str.10
  %16 = call i32 (ptr, ptr, ...) @sprintf(ptr noundef %11, ptr noundef @.str.8, ptr noundef %12, ptr noundef %15) #8
  %17 = getelementptr inbounds [1000 x i8], ptr %7, i64 0, i64 0
  %18 = call i64 @strlen(ptr noundef %17) #9
  %19 = sub i64 %18, 1
  %20 = trunc i64 %19 to i32
  store i32 %20, ptr %10, align 4, !tbaa !11
  br label %21

21:                                               ; preds = %43, %3
  %22 = load i32, ptr %10, align 4, !tbaa !11
  %23 = icmp sge i32 %22, 0
  br i1 %23, label %24, label %46

24:                                               ; preds = %21
  %25 = load i32, ptr %10, align 4, !tbaa !11
  %26 = sext i32 %25 to i64
  %27 = getelementptr inbounds [1000 x i8], ptr %7, i64 0, i64 %26
  %28 = load i8, ptr %27, align 1, !tbaa !10
  %29 = sext i8 %28 to i32
  %30 = icmp eq i32 %29, 60
  br i1 %30, label %38, label %31

31:                                               ; preds = %24
  %32 = load i32, ptr %10, align 4, !tbaa !11
  %33 = sext i32 %32 to i64
  %34 = getelementptr inbounds [1000 x i8], ptr %7, i64 0, i64 %33
  %35 = load i8, ptr %34, align 1, !tbaa !10
  %36 = sext i8 %35 to i32
  %37 = icmp eq i32 %36, 62
  br i1 %37, label %38, label %42

38:                                               ; preds = %31, %24
  %39 = load i32, ptr %10, align 4, !tbaa !11
  %40 = sext i32 %39 to i64
  %41 = getelementptr inbounds [1000 x i8], ptr %7, i64 0, i64 %40
  store i8 95, ptr %41, align 1, !tbaa !10
  br label %42

42:                                               ; preds = %38, %31
  br label %43

43:                                               ; preds = %42
  %44 = load i32, ptr %10, align 4, !tbaa !11
  %45 = add nsw i32 %44, -1
  store i32 %45, ptr %10, align 4, !tbaa !11
  br label %21, !llvm.loop !38

46:                                               ; preds = %21
  %47 = getelementptr inbounds [1000 x i8], ptr %7, i64 0, i64 0
  %48 = call noalias ptr @fopen(ptr noundef %47, ptr noundef @.str.11)
  store ptr %48, ptr %9, align 8, !tbaa !23
  %49 = load ptr, ptr %9, align 8, !tbaa !23
  %50 = load i32, ptr %6, align 4, !tbaa !11
  %51 = icmp ne i32 %50, 0
  %52 = select i1 %51, ptr @.str.13, ptr @.str.14
  %53 = load ptr, ptr %5, align 8, !tbaa !37
  %54 = call ptr (...) @Extra_TimeStamp()
  %55 = call i32 (ptr, ptr, ...) @fprintf(ptr noundef %49, ptr noundef @.str.12, ptr noundef %52, ptr noundef %53, ptr noundef %54) #8
  %56 = load ptr, ptr %9, align 8, !tbaa !23
  %57 = load ptr, ptr %4, align 8, !tbaa !8
  %58 = icmp ne ptr %57, null
  br i1 %58, label %59, label %64

59:                                               ; preds = %46
  %60 = load ptr, ptr %4, align 8, !tbaa !8
  %61 = getelementptr inbounds nuw %struct.Min_Cube_t_, ptr %60, i32 0, i32 1
  %62 = load i32, ptr %61, align 8
  %63 = and i32 %62, 1023
  br label %65

64:                                               ; preds = %46
  br label %65

65:                                               ; preds = %64, %59
  %66 = phi i32 [ %63, %59 ], [ 0, %64 ]
  %67 = call i32 (ptr, ptr, ...) @fprintf(ptr noundef %56, ptr noundef @.str.15, i32 noundef %66) #8
  %68 = load ptr, ptr %9, align 8, !tbaa !23
  %69 = call i32 (ptr, ptr, ...) @fprintf(ptr noundef %68, ptr noundef @.str.16, i32 noundef 1) #8
  %70 = load ptr, ptr %9, align 8, !tbaa !23
  %71 = load ptr, ptr %4, align 8, !tbaa !8
  %72 = call i32 @Min_CoverCountCubes(ptr noundef %71)
  %73 = call i32 (ptr, ptr, ...) @fprintf(ptr noundef %70, ptr noundef @.str.17, i32 noundef %72) #8
  %74 = load i32, ptr %6, align 4, !tbaa !11
  %75 = icmp ne i32 %74, 0
  br i1 %75, label %76, label %79

76:                                               ; preds = %65
  %77 = load ptr, ptr %9, align 8, !tbaa !23
  %78 = call i32 (ptr, ptr, ...) @fprintf(ptr noundef %77, ptr noundef @.str.18) #8
  br label %79

79:                                               ; preds = %76, %65
  %80 = load ptr, ptr %4, align 8, !tbaa !8
  store ptr %80, ptr %8, align 8, !tbaa !8
  br label %81

81:                                               ; preds = %87, %79
  %82 = load ptr, ptr %8, align 8, !tbaa !8
  %83 = icmp ne ptr %82, null
  br i1 %83, label %84, label %91

84:                                               ; preds = %81
  %85 = load ptr, ptr %9, align 8, !tbaa !23
  %86 = load ptr, ptr %8, align 8, !tbaa !8
  call void @Min_CubeWrite(ptr noundef %85, ptr noundef %86)
  br label %87

87:                                               ; preds = %84
  %88 = load ptr, ptr %8, align 8, !tbaa !8
  %89 = getelementptr inbounds nuw %struct.Min_Cube_t_, ptr %88, i32 0, i32 0
  %90 = load ptr, ptr %89, align 8, !tbaa !20
  store ptr %90, ptr %8, align 8, !tbaa !8
  br label %81, !llvm.loop !39

91:                                               ; preds = %81
  %92 = load ptr, ptr %9, align 8, !tbaa !23
  %93 = call i32 (ptr, ptr, ...) @fprintf(ptr noundef %92, ptr noundef @.str.19) #8
  %94 = load ptr, ptr %9, align 8, !tbaa !23
  %95 = call i32 @fclose(ptr noundef %94)
  call void @llvm.lifetime.end.p0(i64 4, ptr %10) #8
  call void @llvm.lifetime.end.p0(i64 8, ptr %9) #8
  call void @llvm.lifetime.end.p0(i64 8, ptr %8) #8
  call void @llvm.lifetime.end.p0(i64 1000, ptr %7) #8
  ret void
}