; Function Attrs: nounwind uwtable
define void @Min_CoverWriteFile(ptr noundef readonly %0, ptr noundef %1, i32 noundef %2) local_unnamed_addr #0 {
  %4 = alloca [1000 x i8], align 16
  call void @llvm.lifetime.start.p0(i64 1000, ptr nonnull %4) #14
  %.not = icmp eq i32 %2, 0
  %5 = select i1 %.not, ptr @.str.10, ptr @.str.9
  %6 = call i32 (ptr, ptr, ...) @sprintf(ptr noundef nonnull dereferenceable(1) %4, ptr noundef nonnull dereferenceable(1) @.str.8, ptr noundef %1, ptr noundef nonnull %5) #14
  %7 = call i64 @strlen(ptr noundef nonnull dereferenceable(1) %4) #15
  %8 = trunc i64 %7 to i32
  %.031 = add i32 %8, -1
  %9 = icmp sgt i32 %.031, -1
  br i1 %9, label %.lr.ph.preheader, label %._crit_edge

.lr.ph.preheader:                                 ; preds = %3
  %10 = zext nneg i32 %.031 to i64
  br label %.lr.ph

.lr.ph:                                           ; preds = %.lr.ph.preheader, %14
  %indvars.iv = phi i64 [ %10, %.lr.ph.preheader ], [ %indvars.iv.next, %14 ]
  %11 = getelementptr inbounds nuw [1000 x i8], ptr %4, i64 0, i64 %indvars.iv
  %12 = load i8, ptr %11, align 1, !tbaa !13
  switch i8 %12, label %14 [
    i8 60, label %13
    i8 62, label %13
  ]

13:                                               ; preds = %.lr.ph, %.lr.ph
  store i8 95, ptr %11, align 1, !tbaa !13
  br label %14

14:                                               ; preds = %.lr.ph, %13
  %indvars.iv.next = add nsw i64 %indvars.iv, -1
  %15 = icmp sgt i64 %indvars.iv, 0
  br i1 %15, label %.lr.ph, label %._crit_edge, !llvm.loop !31

._crit_edge:                                      ; preds = %14, %3
  %16 = call noalias ptr @fopen(ptr noundef nonnull %4, ptr noundef nonnull @.str.11)
  %17 = select i1 %.not, ptr @.str.14, ptr @.str.13
  %18 = tail call ptr (...) @Extra_TimeStamp() #14
  %19 = tail call i32 (ptr, ptr, ...) @fprintf(ptr noundef %16, ptr noundef nonnull @.str.12, ptr noundef nonnull %17, ptr noundef %1, ptr noundef %18) #14
  %.not27 = icmp eq ptr %0, null
  br i1 %.not27, label %Min_CoverCountCubes.exit.critedge, label %20

20:                                               ; preds = %._crit_edge
  %21 = getelementptr inbounds nuw i8, ptr %0, i64 8
  %22 = load i32, ptr %21, align 8
  %23 = and i32 %22, 1023
  %24 = tail call i32 (ptr, ptr, ...) @fprintf(ptr noundef %16, ptr noundef nonnull @.str.15, i32 noundef %23) #14
  %25 = tail call i32 (ptr, ptr, ...) @fprintf(ptr noundef %16, ptr noundef nonnull @.str.16, i32 noundef 1) #14
  br label %.lr.ph.i

.lr.ph.i:                                         ; preds = %20, %.lr.ph.i
  %.07.i = phi i32 [ %26, %.lr.ph.i ], [ 0, %20 ]
  %.046.i = phi ptr [ %27, %.lr.ph.i ], [ %0, %20 ]
  %26 = add nuw nsw i32 %.07.i, 1
  %27 = load ptr, ptr %.046.i, align 8, !tbaa !16
  %.not.i = icmp eq ptr %27, null
  br i1 %.not.i, label %Min_CoverCountCubes.exit, label %.lr.ph.i, !llvm.loop !32

Min_CoverCountCubes.exit.critedge:                ; preds = %._crit_edge
  %28 = tail call i32 (ptr, ptr, ...) @fprintf(ptr noundef %16, ptr noundef nonnull @.str.15, i32 noundef 0) #14
  %29 = tail call i32 (ptr, ptr, ...) @fprintf(ptr noundef %16, ptr noundef nonnull @.str.16, i32 noundef 1) #14
  br label %Min_CoverCountCubes.exit

Min_CoverCountCubes.exit:                         ; preds = %.lr.ph.i, %Min_CoverCountCubes.exit.critedge
  %.0.lcssa.i = phi i32 [ 0, %Min_CoverCountCubes.exit.critedge ], [ %26, %.lr.ph.i ]
  %30 = tail call i32 (ptr, ptr, ...) @fprintf(ptr noundef %16, ptr noundef nonnull @.str.17, i32 noundef %.0.lcssa.i) #14
  br i1 %.not, label %33, label %31

31:                                               ; preds = %Min_CoverCountCubes.exit
  %32 = tail call i64 @fwrite(ptr nonnull @.str.18, i64 11, i64 1, ptr %16)
  br label %33

33:                                               ; preds = %31, %Min_CoverCountCubes.exit
  br i1 %.not27, label %._crit_edge37, label %.lr.ph36

.lr.ph36:                                         ; preds = %33, %Min_CubeWrite.exit
  %.02434 = phi ptr [ %54, %Min_CubeWrite.exit ], [ %0, %33 ]
  %34 = getelementptr inbounds nuw i8, ptr %.02434, i64 8
  %35 = load i32, ptr %34, align 8
  %36 = and i32 %35, 1023
  %.not19.i = icmp eq i32 %36, 0
  br i1 %.not19.i, label %Min_CubeWrite.exit, label %.lr.ph.i29

.lr.ph.i29:                                       ; preds = %.lr.ph36
  %37 = getelementptr inbounds nuw i8, ptr %.02434, i64 12
  br label %38

38:                                               ; preds = %38, %.lr.ph.i29
  %.018.i = phi i32 [ 0, %.lr.ph.i29 ], [ %49, %38 ]
  %39 = shl nuw nsw i32 %.018.i, 1
  %40 = lshr i32 %.018.i, 4
  %41 = zext nneg i32 %40 to i64
  %42 = getelementptr inbounds nuw [1 x i32], ptr %37, i64 0, i64 %41
  %43 = load i32, ptr %42, align 4, !tbaa !3
  %44 = and i32 %39, 30
  %45 = shl nuw nsw i32 1, %44
  %46 = and i32 %45, %43
  %.not.i30 = icmp eq i32 %46, 0
  %47 = shl nuw i32 2, %44
  %48 = and i32 %47, %43
  %.not13.i = icmp eq i32 %48, 0
  %..i = select i1 %.not13.i, i32 48, i32 45
  %.20.i = select i1 %.not13.i, i32 63, i32 49
  %.sink.i = select i1 %.not.i30, i32 %.20.i, i32 %..i
  %fputc16.i = tail call i32 @fputc(i32 %.sink.i, ptr %16)
  %49 = add nuw nsw i32 %.018.i, 1
  %50 = load i32, ptr %34, align 8
  %51 = and i32 %50, 1023
  %52 = icmp samesign ult i32 %49, %51
  br i1 %52, label %38, label %Min_CubeWrite.exit, !llvm.loop !20

Min_CubeWrite.exit:                               ; preds = %38, %.lr.ph36
  %53 = tail call i64 @fwrite(ptr nonnull @.str.4, i64 3, i64 1, ptr %16)
  %54 = load ptr, ptr %.02434, align 8, !tbaa !16
  %.not28 = icmp eq ptr %54, null
  br i1 %.not28, label %._crit_edge37, label %.lr.ph36, !llvm.loop !33

._crit_edge37:                                    ; preds = %Min_CubeWrite.exit, %33
  %55 = tail call i64 @fwrite(ptr nonnull @.str.19, i64 3, i64 1, ptr %16)
  %56 = tail call i32 @fclose(ptr noundef %16)
  call void @llvm.lifetime.end.p0(i64 1000, ptr nonnull %4) #14
  ret void
}